target datalayout = "e-m:e-p270:32:32-p271:32:32-p272:64:64-i64:64-i128:128-f80:128-n8:16:32:64-S128"
target triple = "x86_64-pc-linux-gnu"

%struct.pmix_class_t = type { ptr, ptr, ptr, ptr, i32, i32, ptr, ptr, i64 }
%struct.pmix_list_t = type { %struct.pmix_object_t, %struct.pmix_list_item_t, i64 }
%struct.pmix_object_t = type { %union.pthread_mutex_t, ptr, i32, %struct.pmix_tma }
%union.pthread_mutex_t = type { %struct.__pthread_mutex_s }
%struct.__pthread_mutex_s = type { i32, i32, i32, i32, i32, i16, i16, %struct.__pthread_internal_list }
%struct.__pthread_internal_list = type { ptr, ptr }
%struct.pmix_tma = type { ptr, ptr, ptr, ptr, ptr, ptr, ptr, ptr }
%struct.pmix_list_item_t = type { %struct.pmix_object_t, ptr, ptr, i32 }
%struct.timeval = type { i64, i64 }
%struct.pmix_globals_t = type { i32, %struct.pmix_proc, %struct.pmix_value, %struct.pmix_value, ptr, i32, i32, ptr, i32, i32, i32, i32, i32, ptr, ptr, i32, %struct.pmix_events_t, i8, i8, %struct.timeval, %struct.pmix_list_t, %struct.pmix_pointer_array_t, i32, i32, %struct.pmix_hotel_t, i8, %struct.pmix_list_t, i8, i8, i8, i64, %struct.pmix_list_t, %struct.pmix_topology_t, %struct.pmix_cpuset_t, i8, i8, %struct.pmix_iof_flags_t, %struct.pmix_keyindex_t }
%struct.pmix_proc = type { [256 x i8], i32 }
%struct.pmix_value = type { i16, %union.anon.7 }
%union.anon.7 = type { %struct.pmix_envar_t }
%struct.pmix_envar_t = type { ptr, ptr, i8 }
%struct.pmix_events_t = type { %struct.pmix_object_t, i64, ptr, ptr, %struct.pmix_list_t, %struct.pmix_list_t, %struct.pmix_list_t, %struct.pmix_list_t }
%struct.pmix_pointer_array_t = type { %struct.pmix_object_t, i32, i32, i32, i32, i32, ptr, ptr }
%struct.pmix_hotel_t = type { %struct.pmix_object_t, i32, ptr, %struct.timeval, ptr, ptr, ptr, ptr, i32 }
%struct.pmix_topology_t = type { ptr, ptr }
%struct.pmix_cpuset_t = type { ptr, ptr }
%struct.pmix_iof_flags_t = type { i8, i8, i8, i8, i8, i8, i8, ptr, ptr, i8, i8, i8, i8, i8, i8 }
%struct.pmix_keyindex_t = type { %struct.pmix_object_t, ptr, i32 }
%struct.pmix_progress_tracker_t = type { %struct.pmix_list_item_t, i32, ptr, ptr, i8, %struct.event, i8, %struct.pmix_thread_t }
%struct.event = type { %struct.event_callback, %union.anon.0, i32, ptr, %union.anon.2, i16, i16, %struct.timeval }
%struct.event_callback = type { %struct.anon, i16, i8, i8, %union.anon, ptr }
%struct.anon = type { ptr, ptr }
%union.anon = type { ptr }
%union.anon.0 = type { %struct.anon.1 }
%struct.anon.1 = type { ptr, ptr }
%union.anon.2 = type { %struct.anon.3 }
%struct.anon.3 = type { %struct.anon.4, %struct.timeval }
%struct.anon.4 = type { ptr, ptr }
%struct.pmix_thread_t = type { %struct.pmix_object_t, ptr, ptr, i64 }

@inited = internal global i8 0, align 1
@tracking = internal global %struct.pmix_list_t zeroinitializer, align 8
@shared_thread_name = internal global ptr @.str.2, align 8
@pmix_globals = external global %struct.pmix_globals_t, align 8
@.str.4 = private unnamed_addr constant [21 x i8] c"pthread_mutex_lock()\00", align 1

; Function Attrs: inlinehint nounwind uwtable
define internal void @pmix_tma_free(ptr noundef %0, ptr noundef %1) #3 {
  %3 = alloca ptr, align 8
  %4 = alloca ptr, align 8
  store ptr %0, ptr %3, align 8, !tbaa !47
  store ptr %1, ptr %4, align 8, !tbaa !3
  %5 = load ptr, ptr %3, align 8, !tbaa !47
  %6 = icmp ne ptr null, %5
  br i1 %6, label %7, label %13

7:                                                ; preds = %2
  %8 = load ptr, ptr %3, align 8, !tbaa !47
  %9 = getelementptr inbounds nuw %struct.pmix_tma, ptr %8, i32 0, i32 5
  %10 = load ptr, ptr %9, align 8, !tbaa !63
  %11 = load ptr, ptr %3, align 8, !tbaa !47
  %12 = load ptr, ptr %4, align 8, !tbaa !3
  call void %10(ptr noundef %11, ptr noundef %12)
  br label %15

13:                                               ; preds = %2
  %14 = load ptr, ptr %4, align 8, !tbaa !3
  call void @free(ptr noundef %14) #12
  br label %15

15:                                               ; preds = %13, %7
  ret void
}

; Function Attrs: inlinehint nounwind uwtable
define internal void @pmix_obj_run_destructors(ptr noundef %0) #3 {
  %2 = alloca ptr, align 8
  %3 = alloca ptr, align 8
  store ptr %0, ptr %2, align 8, !tbaa !43
  call void @llvm.lifetime.start.p0(i64 8, ptr %3) #12
  %4 = load ptr, ptr %2, align 8, !tbaa !43
  %5 = getelementptr inbounds nuw %struct.pmix_object_t, ptr %4, i32 0, i32 1
  %6 = load ptr, ptr %5, align 8, !tbaa !34
  %7 = getelementptr inbounds nuw %struct.pmix_class_t, ptr %6, i32 0, i32 7
  %8 = load ptr, ptr %7, align 8, !tbaa !61
  store ptr %8, ptr %3, align 8, !tbaa !3
  br label %9

9:                                                ; preds = %13, %1
  %10 = load ptr, ptr %3, align 8, !tbaa !3
  %11 = load ptr, ptr %10, align 8, !tbaa !3
  %12 = icmp ne ptr null, %11
  br i1 %12, label %13, label %19

13:                                               ; preds = %9
  %14 = load ptr, ptr %3, align 8, !tbaa !3
  %15 = load ptr, ptr %14, align 8, !tbaa !3
  %16 = load ptr, ptr %2, align 8, !tbaa !43
  call void %15(ptr noundef %16)
  %17 = load ptr, ptr %3, align 8, !tbaa !3
  %18 = getelementptr inbounds nuw ptr, ptr %17, i32 1
  store ptr %18, ptr %3, align 8, !tbaa !3
  br label %9, !llvm.loop !62

19:                                               ; preds = %9
  call void @llvm.lifetime.end.p0(i64 8, ptr %3) #12
  ret void
}

; Function Attrs: alwaysinline nounwind uwtable
define internal i32 @pmix_obj_update(ptr noundef %0, i32 noundef %1) #6 {
  %3 = alloca ptr, align 8
  %4 = alloca i32, align 4
  %5 = alloca i32, align 4
  store ptr %0, ptr %3, align 8, !tbaa !43
  store i32 %1, ptr %4, align 4, !tbaa !31
  call void @llvm.lifetime.start.p0(i64 4, ptr %5) #12
  %6 = load ptr, ptr %3, align 8, !tbaa !43
  %7 = getelementptr inbounds nuw %struct.pmix_object_t, ptr %6, i32 0, i32 0
  %8 = call i32 @pthread_mutex_lock(ptr noundef %7) #12
  store i32 %8, ptr %5, align 4, !tbaa !31
  %9 = load i32, ptr %5, align 4, !tbaa !31
  %10 = icmp eq i32 %9, 35
  br i1 %10, label %11, label %14

11:                                               ; preds = %2
  %12 = load i32, ptr %5, align 4, !tbaa !31
  %13 = call ptr @__errno_location() #14
  store i32 %12, ptr %13, align 4, !tbaa !31
  call void @perror(ptr noundef @.str.4)
  call void @abort() #15
  unreachable

14:                                               ; preds = %2
  %15 = load i32, ptr %4, align 4, !tbaa !31
  %16 = load ptr, ptr %3, align 8, !tbaa !43
  %17 = getelementptr inbounds nuw %struct.pmix_object_t, ptr %16, i32 0, i32 2
  %18 = load i32, ptr %17, align 8, !tbaa !35
  %19 = add nsw i32 %18, %15
  store i32 %19, ptr %17, align 8, !tbaa !35
  store i32 %19, ptr %5, align 4, !tbaa !31
  %20 = load ptr, ptr %3, align 8, !tbaa !43
  %21 = getelementptr inbounds nuw %struct.pmix_object_t, ptr %20, i32 0, i32 0
  %22 = call i32 @pthread_mutex_unlock(ptr noundef %21) #12
  %23 = load i32, ptr %5, align 4, !tbaa !31
  call void @llvm.lifetime.end.p0(i64 4, ptr %5) #12
  ret i32 %23
}

; Function Attrs: inlinehint nounwind uwtable
define internal ptr @pmix_list_remove_item(ptr noundef %0, ptr noundef %1) #3 {
  %3 = alloca ptr, align 8
  %4 = alloca ptr, align 8
  store ptr %0, ptr %3, align 8, !tbaa !65
  store ptr %1, ptr %4, align 8, !tbaa !67
  %5 = load ptr, ptr %4, align 8, !tbaa !67
  %6 = getelementptr inbounds nuw %struct.pmix_list_item_t, ptr %5, i32 0, i32 1
  %7 = load ptr, ptr %6, align 8, !tbaa !40
  %8 = load ptr, ptr %4, align 8, !tbaa !67
  %9 = getelementptr inbounds nuw %struct.pmix_list_item_t, ptr %8, i32 0, i32 2
  %10 = load ptr, ptr %9, align 8, !tbaa !68
  %11 = getelementptr inbounds nuw %struct.pmix_list_item_t, ptr %10, i32 0, i32 1
  store volatile ptr %7, ptr %11, align 8, !tbaa !40
  %12 = load ptr, ptr %4, align 8, !tbaa !67
  %13 = getelementptr inbounds nuw %struct.pmix_list_item_t, ptr %12, i32 0, i32 2
  %14 = load ptr, ptr %13, align 8, !tbaa !68
  %15 = load ptr, ptr %4, align 8, !tbaa !67
  %16 = getelementptr inbounds nuw %struct.pmix_list_item_t, ptr %15, i32 0, i32 1
  %17 = load ptr, ptr %16, align 8, !tbaa !40
  %18 = getelementptr inbounds nuw %struct.pmix_list_item_t, ptr %17, i32 0, i32 2
  store volatile ptr %14, ptr %18, align 8, !tbaa !68
  %19 = load ptr, ptr %3, align 8, !tbaa !65
  %20 = getelementptr inbounds nuw %struct.pmix_list_t, ptr %19, i32 0, i32 2
  %21 = load volatile i64, ptr %20, align 8, !tbaa !69
  %22 = add i64 %21, -1
  store volatile i64 %22, ptr %20, align 8, !tbaa !69
  %23 = load ptr, ptr %4, align 8, !tbaa !67
  %24 = getelementptr inbounds nuw %struct.pmix_list_item_t, ptr %23, i32 0, i32 2
  %25 = load ptr, ptr %24, align 8, !tbaa !68
  ret ptr %25
}

; Function Attrs: nounwind uwtable
define i32 @pmix_progress_thread_finalize(ptr noundef %0) #0 {
  %2 = alloca i32, align 4
  %3 = alloca ptr, align 8
  %4 = alloca ptr, align 8
  %5 = alloca i32, align 4
  %6 = alloca ptr, align 8
  store ptr %0, ptr %3, align 8, !tbaa !27
  call void @llvm.lifetime.start.p0(i64 8, ptr %4) #12
  %7 = load i8, ptr @inited, align 1, !tbaa !28, !range !29, !noundef !30
  %8 = trunc i8 %7 to i1
  br i1 %8, label %10, label %9

9:                                                ; preds = %1
  store i32 -46, ptr %2, align 4
  store i32 1, ptr %5, align 4
  br label %74

10:                                               ; preds = %1
  %11 = load ptr, ptr %3, align 8, !tbaa !27
  %12 = icmp eq ptr null, %11
  br i1 %12, label %18, label %13

13:                                               ; preds = %10
  %14 = load ptr, ptr %3, align 8, !tbaa !27
  %15 = load ptr, ptr @shared_thread_name, align 8, !tbaa !27
  %16 = call i32 @strcmp(ptr noundef %14, ptr noundef %15) #13
  %17 = icmp eq i32 0, %16
  br i1 %17, label %18, label %24

18:                                               ; preds = %13, %10
  %19 = load i8, ptr getelementptr inbounds nuw (%struct.pmix_globals_t, ptr @pmix_globals, i32 0, i32 35), align 1, !tbaa !70, !range !29, !noundef !30
  %20 = trunc i8 %19 to i1
  br i1 %20, label %21, label %22

21:                                               ; preds = %18
  store i32 0, ptr %2, align 4
  store i32 1, ptr %5, align 4
  br label %74

22:                                               ; preds = %18
  %23 = load ptr, ptr @shared_thread_name, align 8, !tbaa !27
  store ptr %23, ptr %3, align 8, !tbaa !27
  br label %24

24:                                               ; preds = %22, %13
  %25 = load ptr, ptr getelementptr inbounds nuw (%struct.pmix_list_item_t, ptr getelementptr inbounds nuw (%struct.pmix_list_t, ptr @tracking, i32 0, i32 1), i32 0, i32 1), align 8, !tbaa !36
  store ptr %25, ptr %4, align 8, !tbaa !3
  br label %26

26:                                               ; preds = %69, %24
  %27 = load ptr, ptr %4, align 8, !tbaa !3
  %28 = icmp ne ptr %27, getelementptr inbounds nuw (%struct.pmix_list_t, ptr @tracking, i32 0, i32 1)
  br i1 %28, label %29, label %73

29:                                               ; preds = %26
  %30 = load ptr, ptr %3, align 8, !tbaa !27
  %31 = load ptr, ptr %4, align 8, !tbaa !3
  %32 = getelementptr inbounds nuw %struct.pmix_progress_tracker_t, ptr %31, i32 0, i32 2
  %33 = load ptr, ptr %32, align 8, !tbaa !38
  %34 = call i32 @strcmp(ptr noundef %30, ptr noundef %33) #13
  %35 = icmp eq i32 0, %34
  br i1 %35, label %36, label %68

36:                                               ; preds = %29
  %37 = load ptr, ptr %4, align 8, !tbaa !3
  %38 = getelementptr inbounds nuw %struct.pmix_progress_tracker_t, ptr %37, i32 0, i32 1
  %39 = load i32, ptr %38, align 8, !tbaa !39
  %40 = icmp sgt i32 %39, 0
  br i1 %40, label %41, label %42

41:                                               ; preds = %36
  store i32 0, ptr %2, align 4
  store i32 1, ptr %5, align 4
  br label %74

42:                                               ; preds = %36
  %43 = load ptr, ptr %4, align 8, !tbaa !3
  %44 = getelementptr inbounds nuw %struct.pmix_progress_tracker_t, ptr %43, i32 0, i32 0
  %45 = call ptr @pmix_list_remove_item(ptr noundef @tracking, ptr noundef %44)
  br label %46

46:                                               ; preds = %42
  call void @llvm.lifetime.start.p0(i64 8, ptr %6) #12
  %47 = load ptr, ptr %4, align 8, !tbaa !3
  store ptr %47, ptr %6, align 8, !tbaa !43
  %48 = load ptr, ptr %6, align 8, !tbaa !43
  %49 = call i32 @pmix_obj_update(ptr noundef %48, i32 noundef -1)
  %50 = icmp eq i32 0, %49
  br i1 %50, label %51, label %65

51:                                               ; preds = %46
  %52 = load ptr, ptr %6, align 8, !tbaa !43
  call void @pmix_obj_run_destructors(ptr noundef %52)
  %53 = load ptr, ptr %6, align 8, !tbaa !43
  %54 = getelementptr inbounds nuw %struct.pmix_object_t, ptr %53, i32 0, i32 3
  %55 = getelementptr inbounds nuw %struct.pmix_tma, ptr %54, i32 0, i32 5
  %56 = load ptr, ptr %55, align 8, !tbaa !45
  %57 = icmp ne ptr null, %56
  br i1 %57, label %58, label %62

58:                                               ; preds = %51
  %59 = load ptr, ptr %6, align 8, !tbaa !43
  %60 = getelementptr inbounds nuw %struct.pmix_object_t, ptr %59, i32 0, i32 3
  %61 = load ptr, ptr %4, align 8, !tbaa !3
  call void @pmix_tma_free(ptr noundef %60, ptr noundef %61)
  br label %64

62:                                               ; preds = %51
  %63 = load ptr, ptr %4, align 8, !tbaa !3
  call void @free(ptr noundef %63) #12
  br label %64

64:                                               ; preds = %62, %58
  store ptr null, ptr %4, align 8, !tbaa !3
  br label %65

65:                                               ; preds = %64, %46
  call void @llvm.lifetime.end.p0(i64 8, ptr %6) #12
  br label %66

66:                                               ; preds = %65
  br label %67

67:                                               ; preds = %66
  store i32 0, ptr %2, align 4
  store i32 1, ptr %5, align 4
  br label %74

68:                                               ; preds = %29
  br label %69

69:                                               ; preds = %68
  %70 = load ptr, ptr %4, align 8, !tbaa !3
  %71 = getelementptr inbounds nuw %struct.pmix_list_item_t, ptr %70, i32 0, i32 1
  %72 = load ptr, ptr %71, align 8, !tbaa !40
  store ptr %72, ptr %4, align 8, !tbaa !3
  br label %26, !llvm.loop !95

73:                                               ; preds = %26
  store i32 -46, ptr %2, align 4
  store i32 1, ptr %5, align 4
  br label %74

74:                                               ; preds = %73, %67, %41, %21, %9
  call void @llvm.lifetime.end.p0(i64 8, ptr %4) #12
  %75 = load i32, ptr %2, align 4
  ret i32 %75
}