; Function Attrs: nounwind uwtable
define range(i32 -46, 1) i32 @pmix_progress_thread_finalize(ptr noundef readonly captures(address_is_null) %0) local_unnamed_addr #0 {
  %.b18 = load i1, ptr @inited, align 1
  br i1 %.b18, label %2, label %.loopexit

2:                                                ; preds = %1
  %3 = icmp eq ptr %0, null
  br i1 %3, label %7, label %4

4:                                                ; preds = %2
  %5 = tail call i32 @strcmp(ptr noundef nonnull dereferenceable(1) %0, ptr noundef nonnull dereferenceable(32) @.str.2) #15
  %6 = icmp eq i32 %5, 0
  br i1 %6, label %7, label %10

7:                                                ; preds = %4, %2
  %8 = load i8, ptr getelementptr inbounds nuw (i8, ptr @pmix_globals, i64 2889), align 1, !tbaa !47, !range !61, !noundef !62
  %9 = trunc nuw i8 %8 to i1
  br i1 %9, label %.loopexit, label %10

10:                                               ; preds = %7, %4
  %.016 = phi ptr [ %0, %4 ], [ @.str.2, %7 ]
  %.01522 = load ptr, ptr getelementptr inbounds nuw (i8, ptr @tracking, i64 240), align 8, !tbaa !35
  %.not23 = icmp eq ptr %.01522, getelementptr inbounds nuw (i8, ptr @tracking, i64 120)
  br i1 %.not23, label %.loopexit, label %.lr.ph

.lr.ph:                                           ; preds = %10, %51
  %.01524 = phi ptr [ %.015, %51 ], [ %.01522, %10 ]
  %11 = getelementptr inbounds nuw i8, ptr %.01524, i64 152
  %12 = load ptr, ptr %11, align 8, !tbaa !36
  %13 = tail call i32 @strcmp(ptr noundef nonnull dereferenceable(1) %.016, ptr noundef nonnull dereferenceable(1) %12) #15
  %14 = icmp eq i32 %13, 0
  br i1 %14, label %15, label %51

15:                                               ; preds = %.lr.ph
  %16 = getelementptr inbounds nuw i8, ptr %.01524, i64 144
  %17 = load i32, ptr %16, align 8, !tbaa !37
  %18 = icmp sgt i32 %17, 0
  br i1 %18, label %.loopexit, label %19

19:                                               ; preds = %15
  %20 = getelementptr inbounds nuw i8, ptr %.01524, i64 120
  %21 = load ptr, ptr %20, align 8, !tbaa !35
  %22 = getelementptr inbounds nuw i8, ptr %.01524, i64 128
  %23 = load ptr, ptr %22, align 8, !tbaa !44
  %24 = getelementptr inbounds nuw i8, ptr %23, i64 120
  store volatile ptr %21, ptr %24, align 8, !tbaa !35
  %25 = getelementptr inbounds nuw i8, ptr %21, i64 128
  store volatile ptr %23, ptr %25, align 8, !tbaa !44
  %26 = load volatile i64, ptr getelementptr inbounds nuw (i8, ptr @tracking, i64 264), align 8, !tbaa !45
  %27 = add i64 %26, -1
  store volatile i64 %27, ptr getelementptr inbounds nuw (i8, ptr @tracking, i64 264), align 8, !tbaa !45
  %28 = tail call i32 @pthread_mutex_lock(ptr noundef %.01524) #14
  %29 = icmp eq i32 %28, 35
  br i1 %29, label %30, label %pmix_obj_update.exit

30:                                               ; preds = %19
  %31 = tail call ptr @__errno_location() #17
  store i32 35, ptr %31, align 4, !tbaa !27
  tail call void @perror(ptr noundef nonnull @.str.4) #18
  tail call void @abort() #19
  unreachable

pmix_obj_update.exit:                             ; preds = %19
  %32 = getelementptr inbounds nuw i8, ptr %.01524, i64 48
  %33 = load i32, ptr %32, align 8, !tbaa !31
  %34 = add nsw i32 %33, -1
  store i32 %34, ptr %32, align 8, !tbaa !31
  %35 = tail call i32 @pthread_mutex_unlock(ptr noundef %.01524) #14
  %36 = icmp eq i32 %34, 0
  br i1 %36, label %37, label %.loopexit

37:                                               ; preds = %pmix_obj_update.exit
  %38 = getelementptr inbounds nuw i8, ptr %.01524, i64 40
  %39 = load ptr, ptr %38, align 8, !tbaa !30
  %40 = getelementptr inbounds nuw i8, ptr %39, i64 48
  %41 = load ptr, ptr %40, align 8, !tbaa !40
  %42 = load ptr, ptr %41, align 8, !tbaa !3
  %.not6.i = icmp eq ptr %42, null
  br i1 %.not6.i, label %pmix_obj_run_destructors.exit, label %.lr.ph.i

.lr.ph.i:                                         ; preds = %37, %.lr.ph.i
  %43 = phi ptr [ %45, %.lr.ph.i ], [ %42, %37 ]
  %.07.i = phi ptr [ %44, %.lr.ph.i ], [ %41, %37 ]
  tail call void %43(ptr noundef %.01524) #14
  %44 = getelementptr inbounds nuw i8, ptr %.07.i, i64 8
  %45 = load ptr, ptr %44, align 8, !tbaa !3
  %.not.i = icmp eq ptr %45, null
  br i1 %.not.i, label %pmix_obj_run_destructors.exit, label %.lr.ph.i, !llvm.loop !41

pmix_obj_run_destructors.exit:                    ; preds = %.lr.ph.i, %37
  %46 = getelementptr inbounds nuw i8, ptr %.01524, i64 96
  %47 = load ptr, ptr %46, align 8, !tbaa !42
  %.not19 = icmp eq ptr %47, null
  br i1 %.not19, label %50, label %48

48:                                               ; preds = %pmix_obj_run_destructors.exit
  %49 = getelementptr inbounds nuw i8, ptr %.01524, i64 56
  tail call void %47(ptr noundef nonnull %49, ptr noundef nonnull %.01524) #14
  br label %.loopexit

50:                                               ; preds = %pmix_obj_run_destructors.exit
  tail call void @free(ptr noundef nonnull %.01524) #14
  br label %.loopexit

51:                                               ; preds = %.lr.ph
  %52 = getelementptr inbounds nuw i8, ptr %.01524, i64 120
  %.015 = load ptr, ptr %52, align 8, !tbaa !35
  %.not = icmp eq ptr %.015, getelementptr inbounds nuw (i8, ptr @tracking, i64 120)
  br i1 %.not, label %.loopexit, label %.lr.ph, !llvm.loop !74

.loopexit:                                        ; preds = %51, %10, %pmix_obj_update.exit, %50, %48, %15, %7, %1
  %.0 = phi i32 [ -46, %1 ], [ 0, %7 ], [ 0, %15 ], [ 0, %48 ], [ 0, %50 ], [ 0, %pmix_obj_update.exit ], [ -46, %10 ], [ -46, %51 ]
  ret i32 %.0
}